; Function Attrs: nounwind uwtable
define internal range(i32 0, 2) i32 @Cba_CommandGet(ptr noundef captures(none) %0, i32 noundef %1, ptr noundef %2) #0 {
  %4 = getelementptr i8, ptr %0, i64 536
  %.val = load ptr, ptr %4, align 8, !tbaa !63
  tail call void (...) @Extra_UtilGetoptReset() #19
  br label %.outer

.outer:                                           ; preds = %7, %3
  %.018.ph = phi i32 [ %8, %7 ], [ 0, %3 ]
  %.0.ph = phi i32 [ %.0, %7 ], [ 0, %3 ]
  br label %5

5:                                                ; preds = %.outer, %9
  %.0 = phi i32 [ %10, %9 ], [ %.0.ph, %.outer ]
  %6 = tail call i32 @Extra_UtilGetopt(i32 noundef %1, ptr noundef %2, ptr noundef nonnull @.str.76) #19
  switch i32 %6, label %31 [
    i32 -1, label %11
    i32 109, label %7
    i32 118, label %9
  ]

7:                                                ; preds = %5
  %8 = xor i32 %.018.ph, 1
  br label %.outer, !llvm.loop !81

9:                                                ; preds = %5
  %10 = xor i32 %.0, 1
  br label %5, !llvm.loop !81

11:                                               ; preds = %5
  %12 = icmp eq ptr %.val, null
  br i1 %12, label %13, label %14

13:                                               ; preds = %11
  tail call void (i32, ptr, ...) @Abc_Print(i32 noundef 1, ptr noundef nonnull @.str.77)
  br label %34

14:                                               ; preds = %11
  %.not26 = icmp eq i32 %.018.ph, 0
  br i1 %.not26, label %22, label %15

15:                                               ; preds = %14
  %16 = getelementptr inbounds nuw i8, ptr %0, i64 48
  %17 = load ptr, ptr %16, align 8, !tbaa !82
  %18 = icmp eq ptr %17, null
  br i1 %18, label %19, label %20

19:                                               ; preds = %15
  tail call void (i32, ptr, ...) @Abc_Print(i32 noundef 1, ptr noundef nonnull @.str.78)
  br label %34

20:                                               ; preds = %15
  %21 = tail call ptr @Cba_ManInsertAbc(ptr noundef nonnull %.val, ptr noundef nonnull %17) #19
  br label %29

22:                                               ; preds = %14
  %23 = getelementptr inbounds nuw i8, ptr %0, i64 288
  %24 = load ptr, ptr %23, align 8, !tbaa !83
  %25 = icmp eq ptr %24, null
  br i1 %25, label %26, label %27

26:                                               ; preds = %22
  tail call void (i32, ptr, ...) @Abc_Print(i32 noundef 1, ptr noundef nonnull @.str.79)
  br label %34

27:                                               ; preds = %22
  %28 = tail call ptr @Cba_ManInsertGia(ptr noundef nonnull %.val, ptr noundef nonnull %24) #19
  br label %29

29:                                               ; preds = %27, %20
  %.021 = phi ptr [ %21, %20 ], [ %28, %27 ]
  %.val.i = load ptr, ptr %4, align 8, !tbaa !63
  %.not.i.i = icmp eq ptr %.val.i, null
  br i1 %.not.i.i, label %Cba_AbcUpdateMan.exit, label %30

30:                                               ; preds = %29
  tail call fastcc void @Cba_ManFree(ptr noundef nonnull %.val.i)
  br label %Cba_AbcUpdateMan.exit

Cba_AbcUpdateMan.exit:                            ; preds = %29, %30
  store ptr %.021, ptr %4, align 8, !tbaa !63
  br label %34

31:                                               ; preds = %5
  tail call void (i32, ptr, ...) @Abc_Print(i32 noundef -2, ptr noundef nonnull @.str.80)
  tail call void (i32, ptr, ...) @Abc_Print(i32 noundef -2, ptr noundef nonnull @.str.81)
  %.not27 = icmp eq i32 %.018.ph, 0
  %32 = select i1 %.not27, ptr @.str.28, ptr @.str.27
  tail call void (i32, ptr, ...) @Abc_Print(i32 noundef -2, ptr noundef nonnull @.str.82, ptr noundef nonnull %32)
  %.not28 = icmp eq i32 %.0, 0
  %33 = select i1 %.not28, ptr @.str.28, ptr @.str.27
  tail call void (i32, ptr, ...) @Abc_Print(i32 noundef -2, ptr noundef nonnull @.str.30, ptr noundef nonnull %33)
  tail call void (i32, ptr, ...) @Abc_Print(i32 noundef -2, ptr noundef nonnull @.str.31)
  br label %34

34:                                               ; preds = %31, %Cba_AbcUpdateMan.exit, %26, %19, %13
  %.020 = phi i32 [ 1, %31 ], [ 0, %13 ], [ 0, %19 ], [ 0, %Cba_AbcUpdateMan.exit ], [ 0, %26 ]
  ret i32 %.020
}